; Function Attrs: mustprogress uwtable
define void @_ZN3net23CachedNetworkParameters8CopyFromERKS0_(ptr noundef nonnull align 8 dereferenceable(72) %0, ptr noundef nonnull align 8 captures(address) dereferenceable(72) %1) local_unnamed_addr #1 align 2 {
  %3 = icmp eq ptr %1, %0
  br i1 %3, label %8, label %4

4:                                                ; preds = %2
  %5 = load ptr, ptr %0, align 8, !tbaa !8
  %6 = getelementptr inbounds nuw i8, ptr %5, i64 56
  %7 = load ptr, ptr %6, align 8
  tail call void %7(ptr noundef nonnull align 8 dereferenceable(72) %0)
  tail call void @_ZN3net23CachedNetworkParameters9MergeFromERKS0_(ptr noundef nonnull align 8 dereferenceable(72) %0, ptr noundef nonnull align 8 dereferenceable(72) %1)
  br label %8

8:                                                ; preds = %2, %4
  ret void
}